target datalayout = "e-m:e-p270:32:32-p271:32:32-p272:64:64-i64:64-i128:128-f80:128-n8:16:32:64-S128"
target triple = "x86_64-pc-linux-gnu"

%struct.AudioData = type { [64 x ptr], ptr, i32, i32, i32, i32, i32 }

@.str.20 = private unnamed_addr constant [30 x i8] c"Assertion %s failed at %s:%d\0A\00", align 1
@.str.22 = private unnamed_addr constant [27 x i8] c"libswresample/swresample.c\00", align 1
@.str.43 = private unnamed_addr constant [26 x i8] c"out->planar == in->planar\00", align 1
@.str.44 = private unnamed_addr constant [20 x i8] c"out->bps == in->bps\00", align 1
@.str.45 = private unnamed_addr constant [30 x i8] c"out->ch_count == in->ch_count\00", align 1

; Function Attrs: nounwind uwtable
define internal void @copy(ptr noundef %0, ptr noundef %1, i32 noundef %2) #0 {
  %4 = alloca ptr, align 8
  %5 = alloca ptr, align 8
  %6 = alloca i32, align 4
  %7 = alloca i32, align 4
  store ptr %0, ptr %4, align 8, !tbaa !96
  store ptr %1, ptr %5, align 8, !tbaa !96
  store i32 %2, ptr %6, align 4, !tbaa !31
  br label %8

8:                                                ; preds = %3
  %9 = load ptr, ptr %4, align 8, !tbaa !96
  %10 = getelementptr inbounds nuw %struct.AudioData, ptr %9, i32 0, i32 5
  %11 = load i32, ptr %10, align 4, !tbaa !100
  %12 = load ptr, ptr %5, align 8, !tbaa !96
  %13 = getelementptr inbounds nuw %struct.AudioData, ptr %12, i32 0, i32 5
  %14 = load i32, ptr %13, align 4, !tbaa !100
  %15 = icmp eq i32 %11, %14
  br i1 %15, label %17, label %16

16:                                               ; preds = %8
  call void (ptr, i32, ptr, ...) @av_log(ptr noundef null, i32 noundef 0, ptr noundef @.str.20, ptr noundef @.str.43, ptr noundef @.str.22, i32 noundef 436)
  call void @abort() #10
  unreachable

17:                                               ; preds = %8
  br label %18

18:                                               ; preds = %17
  br label %19

19:                                               ; preds = %18
  %20 = load ptr, ptr %4, align 8, !tbaa !96
  %21 = getelementptr inbounds nuw %struct.AudioData, ptr %20, i32 0, i32 3
  %22 = load i32, ptr %21, align 4, !tbaa !99
  %23 = load ptr, ptr %5, align 8, !tbaa !96
  %24 = getelementptr inbounds nuw %struct.AudioData, ptr %23, i32 0, i32 3
  %25 = load i32, ptr %24, align 4, !tbaa !99
  %26 = icmp eq i32 %22, %25
  br i1 %26, label %28, label %27

27:                                               ; preds = %19
  call void (ptr, i32, ptr, ...) @av_log(ptr noundef null, i32 noundef 0, ptr noundef @.str.20, ptr noundef @.str.44, ptr noundef @.str.22, i32 noundef 437)
  call void @abort() #10
  unreachable

28:                                               ; preds = %19
  br label %29

29:                                               ; preds = %28
  br label %30

30:                                               ; preds = %29
  %31 = load ptr, ptr %4, align 8, !tbaa !96
  %32 = getelementptr inbounds nuw %struct.AudioData, ptr %31, i32 0, i32 2
  %33 = load i32, ptr %32, align 8, !tbaa !101
  %34 = load ptr, ptr %5, align 8, !tbaa !96
  %35 = getelementptr inbounds nuw %struct.AudioData, ptr %34, i32 0, i32 2
  %36 = load i32, ptr %35, align 8, !tbaa !101
  %37 = icmp eq i32 %33, %36
  br i1 %37, label %39, label %38

38:                                               ; preds = %30
  call void (ptr, i32, ptr, ...) @av_log(ptr noundef null, i32 noundef 0, ptr noundef @.str.20, ptr noundef @.str.45, ptr noundef @.str.22, i32 noundef 438)
  call void @abort() #10
  unreachable

39:                                               ; preds = %30
  br label %40

40:                                               ; preds = %39
  %41 = load ptr, ptr %4, align 8, !tbaa !96
  %42 = getelementptr inbounds nuw %struct.AudioData, ptr %41, i32 0, i32 5
  %43 = load i32, ptr %42, align 4, !tbaa !100
  %44 = icmp ne i32 %43, 0
  br i1 %44, label %45, label %75

45:                                               ; preds = %40
  call void @llvm.lifetime.start.p0(i64 4, ptr %7) #9
  store i32 0, ptr %7, align 4, !tbaa !31
  br label %46

46:                                               ; preds = %71, %45
  %47 = load i32, ptr %7, align 4, !tbaa !31
  %48 = load ptr, ptr %4, align 8, !tbaa !96
  %49 = getelementptr inbounds nuw %struct.AudioData, ptr %48, i32 0, i32 2
  %50 = load i32, ptr %49, align 8, !tbaa !101
  %51 = icmp slt i32 %47, %50
  br i1 %51, label %52, label %74

52:                                               ; preds = %46
  %53 = load ptr, ptr %4, align 8, !tbaa !96
  %54 = getelementptr inbounds nuw %struct.AudioData, ptr %53, i32 0, i32 0
  %55 = load i32, ptr %7, align 4, !tbaa !31
  %56 = sext i32 %55 to i64
  %57 = getelementptr inbounds [64 x ptr], ptr %54, i64 0, i64 %56
  %58 = load ptr, ptr %57, align 8, !tbaa !86
  %59 = load ptr, ptr %5, align 8, !tbaa !96
  %60 = getelementptr inbounds nuw %struct.AudioData, ptr %59, i32 0, i32 0
  %61 = load i32, ptr %7, align 4, !tbaa !31
  %62 = sext i32 %61 to i64
  %63 = getelementptr inbounds [64 x ptr], ptr %60, i64 0, i64 %62
  %64 = load ptr, ptr %63, align 8, !tbaa !86
  %65 = load i32, ptr %6, align 4, !tbaa !31
  %66 = load ptr, ptr %4, align 8, !tbaa !96
  %67 = getelementptr inbounds nuw %struct.AudioData, ptr %66, i32 0, i32 3
  %68 = load i32, ptr %67, align 4, !tbaa !99
  %69 = mul nsw i32 %65, %68
  %70 = sext i32 %69 to i64
  call void @llvm.memcpy.p0.p0.i64(ptr align 1 %58, ptr align 1 %64, i64 %70, i1 false)
  br label %71

71:                                               ; preds = %52
  %72 = load i32, ptr %7, align 4, !tbaa !31
  %73 = add nsw i32 %72, 1
  store i32 %73, ptr %7, align 4, !tbaa !31
  br label %46, !llvm.loop !131

74:                                               ; preds = %46
  call void @llvm.lifetime.end.p0(i64 4, ptr %7) #9
  br label %94

75:                                               ; preds = %40
  %76 = load ptr, ptr %4, align 8, !tbaa !96
  %77 = getelementptr inbounds nuw %struct.AudioData, ptr %76, i32 0, i32 0
  %78 = getelementptr inbounds [64 x ptr], ptr %77, i64 0, i64 0
  %79 = load ptr, ptr %78, align 8, !tbaa !86
  %80 = load ptr, ptr %5, align 8, !tbaa !96
  %81 = getelementptr inbounds nuw %struct.AudioData, ptr %80, i32 0, i32 0
  %82 = getelementptr inbounds [64 x ptr], ptr %81, i64 0, i64 0
  %83 = load ptr, ptr %82, align 8, !tbaa !86
  %84 = load i32, ptr %6, align 4, !tbaa !31
  %85 = load ptr, ptr %4, align 8, !tbaa !96
  %86 = getelementptr inbounds nuw %struct.AudioData, ptr %85, i32 0, i32 2
  %87 = load i32, ptr %86, align 8, !tbaa !101
  %88 = mul nsw i32 %84, %87
  %89 = load ptr, ptr %4, align 8, !tbaa !96
  %90 = getelementptr inbounds nuw %struct.AudioData, ptr %89, i32 0, i32 3
  %91 = load i32, ptr %90, align 4, !tbaa !99
  %92 = mul nsw i32 %88, %91
  %93 = sext i32 %92 to i64
  call void @llvm.memcpy.p0.p0.i64(ptr align 1 %79, ptr align 1 %83, i64 %93, i1 false)
  br label %94

94:                                               ; preds = %75, %74
  ret void
}