; Function Attrs: nounwind uwtable
define internal fastcc void @copy(ptr noundef readonly captures(none) %0, ptr noundef readonly captures(none) %1, i32 noundef %2) unnamed_addr #1 {
  %4 = getelementptr inbounds nuw i8, ptr %0, i64 532
  %5 = load i32, ptr %4, align 4, !tbaa !94
  %6 = getelementptr inbounds nuw i8, ptr %1, i64 532
  %7 = load i32, ptr %6, align 4, !tbaa !94
  %8 = icmp eq i32 %5, %7
  br i1 %8, label %10, label %9

9:                                                ; preds = %3
  tail call void (ptr, i32, ptr, ...) @av_log(ptr noundef null, i32 noundef 0, ptr noundef nonnull @.str.20, ptr noundef nonnull @.str.43, ptr noundef nonnull @.str.22, i32 noundef 436) #12
  tail call void @abort() #13
  unreachable

10:                                               ; preds = %3
  %11 = getelementptr inbounds nuw i8, ptr %0, i64 524
  %12 = load i32, ptr %11, align 4, !tbaa !91
  %13 = getelementptr inbounds nuw i8, ptr %1, i64 524
  %14 = load i32, ptr %13, align 4, !tbaa !91
  %15 = icmp eq i32 %12, %14
  br i1 %15, label %17, label %16

16:                                               ; preds = %10
  tail call void (ptr, i32, ptr, ...) @av_log(ptr noundef null, i32 noundef 0, ptr noundef nonnull @.str.20, ptr noundef nonnull @.str.44, ptr noundef nonnull @.str.22, i32 noundef 437) #12
  tail call void @abort() #13
  unreachable

17:                                               ; preds = %10
  %18 = getelementptr inbounds nuw i8, ptr %0, i64 520
  %19 = load i32, ptr %18, align 8, !tbaa !92
  %20 = getelementptr inbounds nuw i8, ptr %1, i64 520
  %21 = load i32, ptr %20, align 8, !tbaa !92
  %22 = icmp eq i32 %19, %21
  br i1 %22, label %24, label %23

23:                                               ; preds = %17
  tail call void (ptr, i32, ptr, ...) @av_log(ptr noundef null, i32 noundef 0, ptr noundef nonnull @.str.20, ptr noundef nonnull @.str.45, ptr noundef nonnull @.str.22, i32 noundef 438) #12
  tail call void @abort() #13
  unreachable

24:                                               ; preds = %17
  %.not = icmp eq i32 %5, 0
  br i1 %.not, label %36, label %.preheader

.preheader:                                       ; preds = %24
  %25 = icmp sgt i32 %19, 0
  br i1 %25, label %.lr.ph, label %.loopexit

.lr.ph:                                           ; preds = %.preheader, %.lr.ph
  %indvars.iv = phi i64 [ %indvars.iv.next, %.lr.ph ], [ 0, %.preheader ]
  %26 = getelementptr inbounds nuw [64 x ptr], ptr %0, i64 0, i64 %indvars.iv
  %27 = load ptr, ptr %26, align 8, !tbaa !79
  %28 = getelementptr inbounds nuw [64 x ptr], ptr %1, i64 0, i64 %indvars.iv
  %29 = load ptr, ptr %28, align 8, !tbaa !79
  %30 = load i32, ptr %11, align 4, !tbaa !91
  %31 = mul nsw i32 %30, %2
  %32 = sext i32 %31 to i64
  tail call void @llvm.memcpy.p0.p0.i64(ptr align 1 %27, ptr align 1 %29, i64 %32, i1 false)
  %indvars.iv.next = add nuw nsw i64 %indvars.iv, 1
  %33 = load i32, ptr %18, align 8, !tbaa !92
  %34 = sext i32 %33 to i64
  %35 = icmp slt i64 %indvars.iv.next, %34
  br i1 %35, label %.lr.ph, label %.loopexit, !llvm.loop !120

36:                                               ; preds = %24
  %37 = load ptr, ptr %0, align 8, !tbaa !79
  %38 = load ptr, ptr %1, align 8, !tbaa !79
  %39 = mul i32 %12, %2
  %40 = mul i32 %39, %19
  %41 = sext i32 %40 to i64
  tail call void @llvm.memcpy.p0.p0.i64(ptr align 1 %37, ptr align 1 %38, i64 %41, i1 false)
  br label %.loopexit

.loopexit:                                        ; preds = %.lr.ph, %.preheader, %36
  ret void
}